target datalayout = "e-m:e-p270:32:32-p271:32:32-p272:64:64-i64:64-i128:128-f80:128-n8:16:32:64-S128"
target triple = "x86_64-pc-linux-gnu"

@.str.26 = private unnamed_addr constant [16 x i8] c"NVLinkBandwidth\00", align 1

; Function Attrs: nounwind uwtable
define internal i32 @hwloc__nvml_add_nvlink_bandwidth(ptr noundef %0, i32 noundef %1, ptr noundef %2, ptr noundef %3) #0 {
  %5 = alloca i32, align 4
  %6 = alloca ptr, align 8
  %7 = alloca i32, align 4
  %8 = alloca ptr, align 8
  %9 = alloca ptr, align 8
  %10 = alloca ptr, align 8
  %11 = alloca i32, align 4
  %12 = alloca i32, align 4
  store ptr %0, ptr %6, align 8, !tbaa !10
  store i32 %1, ptr %7, align 4, !tbaa !14
  store ptr %2, ptr %8, align 8, !tbaa !28
  store ptr %3, ptr %9, align 8, !tbaa !30
  call void @llvm.lifetime.start.p0(i64 8, ptr %10) #9
  call void @llvm.lifetime.start.p0(i64 4, ptr %11) #9
  %13 = load ptr, ptr %6, align 8, !tbaa !10
  %14 = call ptr @hwloc_backend_distances_add_create(ptr noundef %13, ptr noundef @.str.26, i64 noundef 9, i64 noundef 0)
  store ptr %14, ptr %10, align 8, !tbaa !16
  %15 = load ptr, ptr %10, align 8, !tbaa !16
  %16 = icmp ne ptr %15, null
  br i1 %16, label %18, label %17

17:                                               ; preds = %4
  br label %36

18:                                               ; preds = %4
  %19 = load ptr, ptr %6, align 8, !tbaa !10
  %20 = load ptr, ptr %10, align 8, !tbaa !16
  %21 = load i32, ptr %7, align 4, !tbaa !14
  %22 = load ptr, ptr %8, align 8, !tbaa !28
  %23 = load ptr, ptr %9, align 8, !tbaa !30
  %24 = call i32 @hwloc_backend_distances_add_values(ptr noundef %19, ptr noundef %20, i32 noundef %21, ptr noundef %22, ptr noundef %23, i64 noundef 0)
  store i32 %24, ptr %11, align 4, !tbaa !14
  %25 = load i32, ptr %11, align 4, !tbaa !14
  %26 = icmp slt i32 %25, 0
  br i1 %26, label %27, label %28

27:                                               ; preds = %18
  br label %36

28:                                               ; preds = %18
  store ptr null, ptr %8, align 8, !tbaa !28
  store ptr null, ptr %9, align 8, !tbaa !30
  %29 = load ptr, ptr %6, align 8, !tbaa !10
  %30 = load ptr, ptr %10, align 8, !tbaa !16
  %31 = call i32 @hwloc_backend_distances_add_commit(ptr noundef %29, ptr noundef %30, i64 noundef 0)
  store i32 %31, ptr %11, align 4, !tbaa !14
  %32 = load i32, ptr %11, align 4, !tbaa !14
  %33 = icmp slt i32 %32, 0
  br i1 %33, label %34, label %35

34:                                               ; preds = %28
  br label %36

35:                                               ; preds = %28
  store i32 0, ptr %5, align 4
  store i32 1, ptr %12, align 4
  br label %39

36:                                               ; preds = %34, %27, %17
  %37 = load ptr, ptr %8, align 8, !tbaa !28
  call void @free(ptr noundef %37) #9
  %38 = load ptr, ptr %9, align 8, !tbaa !30
  call void @free(ptr noundef %38) #9
  store i32 -1, ptr %5, align 4
  store i32 1, ptr %12, align 4
  br label %39

39:                                               ; preds = %36, %35
  call void @llvm.lifetime.end.p0(i64 4, ptr %11) #9
  call void @llvm.lifetime.end.p0(i64 8, ptr %10) #9
  %40 = load i32, ptr %5, align 4
  ret i32 %40
}