; Function Attrs: nounwind uwtable
define internal fastcc void @hwloc__nvml_add_nvlink_bandwidth(ptr noundef %0, i32 noundef %1, ptr noundef nonnull %2, ptr noundef nonnull %3) unnamed_addr #1 {
  %5 = tail call ptr @hwloc_backend_distances_add_create(ptr noundef %0, ptr noundef nonnull @.str.26, i64 noundef 9, i64 noundef 0) #11
  %.not = icmp eq ptr %5, null
  br i1 %.not, label %12, label %6

6:                                                ; preds = %4
  %7 = tail call i32 @hwloc_backend_distances_add_values(ptr noundef %0, ptr noundef nonnull %5, i32 noundef %1, ptr noundef nonnull %2, ptr noundef nonnull %3, i64 noundef 0) #11
  %8 = icmp slt i32 %7, 0
  br i1 %8, label %12, label %9

9:                                                ; preds = %6
  %10 = tail call i32 @hwloc_backend_distances_add_commit(ptr noundef %0, ptr noundef nonnull %5, i64 noundef 0) #11
  %11 = icmp slt i32 %10, 0
  br i1 %11, label %12, label %13

12:                                               ; preds = %9, %6, %4
  %.014 = phi ptr [ %2, %6 ], [ null, %9 ], [ %2, %4 ]
  %.013 = phi ptr [ %3, %6 ], [ null, %9 ], [ %3, %4 ]
  tail call void @free(ptr noundef %.014) #11
  tail call void @free(ptr noundef %.013) #11
  br label %13

13:                                               ; preds = %9, %12
  ret void
}